target datalayout = "e-m:e-p270:32:32-p271:32:32-p272:64:64-i64:64-i128:128-f80:128-n8:16:32:64-S128"
target triple = "x86_64-pc-linux-gnu"

%"struct.std::_Rb_tree_header" = type { %"struct.std::_Rb_tree_node_base", i64 }
%"struct.std::_Rb_tree_node_base" = type { i32, ptr, ptr, ptr }
%"class.std::set" = type { %"class.std::_Rb_tree.8" }
%"class.std::_Rb_tree.8" = type { %"struct.std::_Rb_tree<ue2::som_report, ue2::som_report, std::_Identity<ue2::som_report>, std::less<ue2::som_report>>::_Rb_tree_impl" }
%"struct.std::_Rb_tree<ue2::som_report, ue2::som_report, std::_Identity<ue2::som_report>, std::less<ue2::som_report>>::_Rb_tree_impl" = type { [8 x i8], %"struct.std::_Rb_tree_header" }
%"struct.ue2::(anonymous namespace)::raw_gough_report_list" = type { %"class.std::set" }
%"struct.ue2::(anonymous namespace)::raw_gough_report_info_impl" = type { %"struct.ue2::raw_report_info", %"class.std::vector.632" }
%"struct.ue2::raw_report_info" = type { ptr }
%"class.std::vector.632" = type { %"struct.std::_Vector_base.633" }
%"struct.std::_Vector_base.633" = type { %"struct.std::_Vector_base<ue2::(anonymous namespace)::raw_gough_report_list, std::allocator<ue2::(anonymous namespace)::raw_gough_report_list>>::_Vector_impl" }
%"struct.std::_Vector_base<ue2::(anonymous namespace)::raw_gough_report_list, std::allocator<ue2::(anonymous namespace)::raw_gough_report_list>>::_Vector_impl" = type { %"struct.std::_Vector_base<ue2::(anonymous namespace)::raw_gough_report_list, std::allocator<ue2::(anonymous namespace)::raw_gough_report_list>>::_Vector_impl_data" }
%"struct.std::_Vector_base<ue2::(anonymous namespace)::raw_gough_report_list, std::allocator<ue2::(anonymous namespace)::raw_gough_report_list>>::_Vector_impl_data" = type { ptr, ptr, ptr }
%"class.__gnu_cxx::__normal_iterator.637" = type { ptr }

; Function Attrs: mustprogress nounwind uwtable
define linkonce_odr hidden noundef i64 @_ZNKSt8_Rb_treeIN3ue210som_reportES1_St9_IdentityIS1_ESt4lessIS1_ESaIS1_EE4sizeEv(ptr noundef nonnull align 8 dereferenceable(48) %0) #1 comdat align 2 {
  %2 = alloca ptr, align 8
  store ptr %0, ptr %2, align 8
  %3 = load ptr, ptr %2, align 8
  %4 = getelementptr inbounds nuw %"class.std::_Rb_tree.8", ptr %3, i32 0, i32 0
  %5 = getelementptr inbounds i8, ptr %4, i64 8
  %6 = getelementptr inbounds nuw %"struct.std::_Rb_tree_header", ptr %5, i32 0, i32 1
  %7 = load i64, ptr %6, align 8
  ret i64 %7
}

; Function Attrs: mustprogress nounwind uwtable
define internal noundef nonnull align 8 dereferenceable(8) ptr @_ZNK9__gnu_cxx17__normal_iteratorIPKN3ue212_GLOBAL__N_121raw_gough_report_listESt6vectorIS3_SaIS3_EEE4baseEv(ptr noundef nonnull align 8 dereferenceable(8) %0) #1 align 2 {
  %2 = alloca ptr, align 8
  store ptr %0, ptr %2, align 8
  %3 = load ptr, ptr %2, align 8
  %4 = getelementptr inbounds nuw %"class.__gnu_cxx::__normal_iterator.637", ptr %3, i32 0, i32 0
  ret ptr %4
}

; Function Attrs: mustprogress nounwind uwtable
define internal void @_ZN9__gnu_cxx17__normal_iteratorIPKN3ue212_GLOBAL__N_121raw_gough_report_listESt6vectorIS3_SaIS3_EEEC2ERKS5_(ptr noundef nonnull align 8 dereferenceable(8) %0, ptr noundef nonnull align 8 dereferenceable(8) %1) unnamed_addr #1 align 2 {
  %3 = alloca ptr, align 8
  %4 = alloca ptr, align 8
  store ptr %0, ptr %3, align 8
  store ptr %1, ptr %4, align 8
  %5 = load ptr, ptr %3, align 8
  %6 = getelementptr inbounds nuw %"class.__gnu_cxx::__normal_iterator.637", ptr %5, i32 0, i32 0
  %7 = load ptr, ptr %4, align 8
  %8 = load ptr, ptr %7, align 8
  store ptr %8, ptr %6, align 8
  ret void
}

; Function Attrs: mustprogress nounwind uwtable
define internal noundef nonnull align 8 dereferenceable(8) ptr @_ZN9__gnu_cxx17__normal_iteratorIPKN3ue212_GLOBAL__N_121raw_gough_report_listESt6vectorIS3_SaIS3_EEEppEv(ptr noundef nonnull align 8 dereferenceable(8) %0) #1 align 2 {
  %2 = alloca ptr, align 8
  store ptr %0, ptr %2, align 8
  %3 = load ptr, ptr %2, align 8
  %4 = getelementptr inbounds nuw %"class.__gnu_cxx::__normal_iterator.637", ptr %3, i32 0, i32 0
  %5 = load ptr, ptr %4, align 8
  %6 = getelementptr inbounds nuw %"struct.ue2::(anonymous namespace)::raw_gough_report_list", ptr %5, i32 1
  store ptr %6, ptr %4, align 8
  ret ptr %3
}

; Function Attrs: mustprogress nounwind uwtable
define linkonce_odr hidden noundef i64 @_ZNKSt3setIN3ue210som_reportESt4lessIS1_ESaIS1_EE4sizeEv(ptr noundef nonnull align 8 dereferenceable(48) %0) #1 comdat align 2 {
  %2 = alloca ptr, align 8
  store ptr %0, ptr %2, align 8
  %3 = load ptr, ptr %2, align 8
  %4 = getelementptr inbounds nuw %"class.std::set", ptr %3, i32 0, i32 0
  %5 = call noundef i64 @_ZNKSt8_Rb_treeIN3ue210som_reportES1_St9_IdentityIS1_ESt4lessIS1_ESaIS1_EE4sizeEv(ptr noundef nonnull align 8 dereferenceable(48) %4) #25
  ret i64 %5
}

; Function Attrs: mustprogress nounwind uwtable
define internal noundef nonnull align 8 dereferenceable(48) ptr @_ZNK9__gnu_cxx17__normal_iteratorIPKN3ue212_GLOBAL__N_121raw_gough_report_listESt6vectorIS3_SaIS3_EEEdeEv(ptr noundef nonnull align 8 dereferenceable(8) %0) #1 align 2 {
  %2 = alloca ptr, align 8
  store ptr %0, ptr %2, align 8
  %3 = load ptr, ptr %2, align 8
  %4 = getelementptr inbounds nuw %"class.__gnu_cxx::__normal_iterator.637", ptr %3, i32 0, i32 0
  %5 = load ptr, ptr %4, align 8
  ret ptr %5
}

; Function Attrs: inlinehint mustprogress nounwind uwtable
define internal noundef zeroext i1 @_ZN9__gnu_cxxneIPKN3ue212_GLOBAL__N_121raw_gough_report_listESt6vectorIS3_SaIS3_EEEEbRKNS_17__normal_iteratorIT_T0_EESE_(ptr noundef nonnull align 8 dereferenceable(8) %0, ptr noundef nonnull align 8 dereferenceable(8) %1) #4 {
  %3 = alloca ptr, align 8
  %4 = alloca ptr, align 8
  store ptr %0, ptr %3, align 8
  store ptr %1, ptr %4, align 8
  %5 = load ptr, ptr %3, align 8
  %6 = call noundef nonnull align 8 dereferenceable(8) ptr @_ZNK9__gnu_cxx17__normal_iteratorIPKN3ue212_GLOBAL__N_121raw_gough_report_listESt6vectorIS3_SaIS3_EEE4baseEv(ptr noundef nonnull align 8 dereferenceable(8) %5) #25
  %7 = load ptr, ptr %6, align 8
  %8 = load ptr, ptr %4, align 8
  %9 = call noundef nonnull align 8 dereferenceable(8) ptr @_ZNK9__gnu_cxx17__normal_iteratorIPKN3ue212_GLOBAL__N_121raw_gough_report_listESt6vectorIS3_SaIS3_EEE4baseEv(ptr noundef nonnull align 8 dereferenceable(8) %8) #25
  %10 = load ptr, ptr %9, align 8
  %11 = icmp ne ptr %7, %10
  ret i1 %11
}

; Function Attrs: mustprogress nounwind uwtable
define internal ptr @_ZNKSt6vectorIN3ue212_GLOBAL__N_121raw_gough_report_listESaIS2_EE3endEv(ptr noundef nonnull align 8 dereferenceable(24) %0) #1 align 2 {
  %2 = alloca %"class.__gnu_cxx::__normal_iterator.637", align 8
  %3 = alloca ptr, align 8
  store ptr %0, ptr %3, align 8
  %4 = load ptr, ptr %3, align 8
  %5 = getelementptr inbounds nuw %"struct.std::_Vector_base.633", ptr %4, i32 0, i32 0
  %6 = getelementptr inbounds nuw %"struct.std::_Vector_base<ue2::(anonymous namespace)::raw_gough_report_list, std::allocator<ue2::(anonymous namespace)::raw_gough_report_list>>::_Vector_impl_data", ptr %5, i32 0, i32 1
  call void @_ZN9__gnu_cxx17__normal_iteratorIPKN3ue212_GLOBAL__N_121raw_gough_report_listESt6vectorIS3_SaIS3_EEEC2ERKS5_(ptr noundef nonnull align 8 dereferenceable(8) %2, ptr noundef nonnull align 8 dereferenceable(8) %6) #25
  %7 = getelementptr inbounds nuw %"class.__gnu_cxx::__normal_iterator.637", ptr %2, i32 0, i32 0
  %8 = load ptr, ptr %7, align 8
  ret ptr %8
}

; Function Attrs: mustprogress nounwind uwtable
define internal ptr @_ZNKSt6vectorIN3ue212_GLOBAL__N_121raw_gough_report_listESaIS2_EE5beginEv(ptr noundef nonnull align 8 dereferenceable(24) %0) #1 align 2 {
  %2 = alloca %"class.__gnu_cxx::__normal_iterator.637", align 8
  %3 = alloca ptr, align 8
  store ptr %0, ptr %3, align 8
  %4 = load ptr, ptr %3, align 8
  %5 = getelementptr inbounds nuw %"struct.std::_Vector_base.633", ptr %4, i32 0, i32 0
  %6 = getelementptr inbounds nuw %"struct.std::_Vector_base<ue2::(anonymous namespace)::raw_gough_report_list, std::allocator<ue2::(anonymous namespace)::raw_gough_report_list>>::_Vector_impl_data", ptr %5, i32 0, i32 0
  call void @_ZN9__gnu_cxx17__normal_iteratorIPKN3ue212_GLOBAL__N_121raw_gough_report_listESt6vectorIS3_SaIS3_EEEC2ERKS5_(ptr noundef nonnull align 8 dereferenceable(8) %2, ptr noundef nonnull align 8 dereferenceable(8) %6) #25
  %7 = getelementptr inbounds nuw %"class.__gnu_cxx::__normal_iterator.637", ptr %2, i32 0, i32 0
  %8 = load ptr, ptr %7, align 8
  ret ptr %8
}

; Function Attrs: mustprogress nounwind uwtable
define internal noundef i32 @_ZNK3ue212_GLOBAL__N_126raw_gough_report_info_impl17getReportListSizeEv(ptr noundef nonnull align 8 dereferenceable(32) %0) unnamed_addr #1 align 2 {
  %2 = alloca ptr, align 8
  %3 = alloca i32, align 4
  %4 = alloca ptr, align 8
  %5 = alloca %"class.__gnu_cxx::__normal_iterator.637", align 8
  %6 = alloca %"class.__gnu_cxx::__normal_iterator.637", align 8
  %7 = alloca ptr, align 8
  store ptr %0, ptr %2, align 8
  %8 = load ptr, ptr %2, align 8
  call void @llvm.lifetime.start.p0(i64 4, ptr %3) #25
  store i32 0, ptr %3, align 4
  call void @llvm.lifetime.start.p0(i64 8, ptr %4) #25
  %9 = getelementptr inbounds nuw %"struct.ue2::(anonymous namespace)::raw_gough_report_info_impl", ptr %8, i32 0, i32 1
  store ptr %9, ptr %4, align 8
  call void @llvm.lifetime.start.p0(i64 8, ptr %5) #25
  %10 = load ptr, ptr %4, align 8
  %11 = call ptr @_ZNKSt6vectorIN3ue212_GLOBAL__N_121raw_gough_report_listESaIS2_EE5beginEv(ptr noundef nonnull align 8 dereferenceable(24) %10) #25
  %12 = getelementptr inbounds nuw %"class.__gnu_cxx::__normal_iterator.637", ptr %5, i32 0, i32 0
  store ptr %11, ptr %12, align 8
  call void @llvm.lifetime.start.p0(i64 8, ptr %6) #25
  %13 = load ptr, ptr %4, align 8
  %14 = call ptr @_ZNKSt6vectorIN3ue212_GLOBAL__N_121raw_gough_report_listESaIS2_EE3endEv(ptr noundef nonnull align 8 dereferenceable(24) %13) #25
  %15 = getelementptr inbounds nuw %"class.__gnu_cxx::__normal_iterator.637", ptr %6, i32 0, i32 0
  store ptr %14, ptr %15, align 8
  br label %16

16:                                               ; preds = %33, %1
  %17 = call noundef zeroext i1 @_ZN9__gnu_cxxneIPKN3ue212_GLOBAL__N_121raw_gough_report_listESt6vectorIS3_SaIS3_EEEEbRKNS_17__normal_iteratorIT_T0_EESE_(ptr noundef nonnull align 8 dereferenceable(8) %5, ptr noundef nonnull align 8 dereferenceable(8) %6) #25
  br i1 %17, label %19, label %18

18:                                               ; preds = %16
  call void @llvm.lifetime.end.p0(i64 8, ptr %6) #25
  call void @llvm.lifetime.end.p0(i64 8, ptr %5) #25
  call void @llvm.lifetime.end.p0(i64 8, ptr %4) #25
  br label %35

19:                                               ; preds = %16
  call void @llvm.lifetime.start.p0(i64 8, ptr %7) #25
  %20 = call noundef nonnull align 8 dereferenceable(48) ptr @_ZNK9__gnu_cxx17__normal_iteratorIPKN3ue212_GLOBAL__N_121raw_gough_report_listESt6vectorIS3_SaIS3_EEEdeEv(ptr noundef nonnull align 8 dereferenceable(8) %5) #25
  store ptr %20, ptr %7, align 8
  %21 = load i32, ptr %3, align 4
  %22 = zext i32 %21 to i64
  %23 = add i64 %22, 4
  %24 = trunc i64 %23 to i32
  store i32 %24, ptr %3, align 4
  %25 = load ptr, ptr %7, align 8
  %26 = getelementptr inbounds nuw %"struct.ue2::(anonymous namespace)::raw_gough_report_list", ptr %25, i32 0, i32 0
  %27 = call noundef i64 @_ZNKSt3setIN3ue210som_reportESt4lessIS1_ESaIS1_EE4sizeEv(ptr noundef nonnull align 8 dereferenceable(48) %26) #25
  %28 = mul i64 8, %27
  %29 = load i32, ptr %3, align 4
  %30 = zext i32 %29 to i64
  %31 = add i64 %30, %28
  %32 = trunc i64 %31 to i32
  store i32 %32, ptr %3, align 4
  call void @llvm.lifetime.end.p0(i64 8, ptr %7) #25
  br label %33

33:                                               ; preds = %19
  %34 = call noundef nonnull align 8 dereferenceable(8) ptr @_ZN9__gnu_cxx17__normal_iteratorIPKN3ue212_GLOBAL__N_121raw_gough_report_listESt6vectorIS3_SaIS3_EEEppEv(ptr noundef nonnull align 8 dereferenceable(8) %5) #25
  br label %16

35:                                               ; preds = %18
  %36 = load i32, ptr %3, align 4
  call void @llvm.lifetime.end.p0(i64 4, ptr %3) #25
  ret i32 %36
}